; Function Attrs: nofree norecurse nosync nounwind memory(read, argmem: readwrite, inaccessiblemem: none) uwtable
define hidden void @VP8IteratorStartI4(ptr noundef initializes((128, 132)) %0) local_unnamed_addr #10 {
  %2 = getelementptr inbounds nuw i8, ptr %0, i64 40
  %3 = load ptr, ptr %2, align 8, !tbaa !3
  %4 = getelementptr inbounds nuw i8, ptr %0, i64 128
  store i32 0, ptr %4, align 8, !tbaa !87
  %5 = getelementptr inbounds nuw i8, ptr %0, i64 80
  %6 = getelementptr inbounds nuw i8, ptr %0, i64 97
  %7 = getelementptr inbounds nuw i8, ptr %0, i64 120
  store ptr %6, ptr %7, align 8, !tbaa !88
  %8 = getelementptr inbounds nuw i8, ptr %0, i64 360
  br label %10

.preheader31:                                     ; preds = %10
  %9 = getelementptr inbounds nuw i8, ptr %0, i64 384
  br label %16

10:                                               ; preds = %1, %10
  %indvars.iv = phi i64 [ 0, %1 ], [ %indvars.iv.next, %10 ]
  %11 = load ptr, ptr %8, align 8, !tbaa !46
  %12 = sub nsw i64 15, %indvars.iv
  %13 = getelementptr inbounds i8, ptr %11, i64 %12
  %14 = load i8, ptr %13, align 1, !tbaa !44
  %15 = getelementptr inbounds nuw [37 x i8], ptr %5, i64 0, i64 %indvars.iv
  store i8 %14, ptr %15, align 1, !tbaa !44
  %indvars.iv.next = add nuw nsw i64 %indvars.iv, 1
  %exitcond.not = icmp eq i64 %indvars.iv.next, 17
  br i1 %exitcond.not, label %.preheader31, label %10, !llvm.loop !89

16:                                               ; preds = %.preheader31, %16
  %indvars.iv38 = phi i64 [ 0, %.preheader31 ], [ %indvars.iv.next39, %16 ]
  %17 = load ptr, ptr %9, align 8, !tbaa !40
  %18 = getelementptr inbounds nuw i8, ptr %17, i64 %indvars.iv38
  %19 = load i8, ptr %18, align 1, !tbaa !44
  %20 = add nuw nsw i64 %indvars.iv38, 17
  %21 = getelementptr inbounds nuw [37 x i8], ptr %5, i64 0, i64 %20
  store i8 %19, ptr %21, align 1, !tbaa !44
  %indvars.iv.next39 = add nuw nsw i64 %indvars.iv38, 1
  %exitcond41.not = icmp eq i64 %indvars.iv.next39, 16
  br i1 %exitcond41.not, label %22, label %16, !llvm.loop !90

22:                                               ; preds = %16
  %23 = load i32, ptr %0, align 8, !tbaa !15
  %24 = getelementptr inbounds nuw i8, ptr %3, i64 48
  %25 = load i32, ptr %24, align 8, !tbaa !37
  %26 = add nsw i32 %25, -1
  %27 = icmp slt i32 %23, %26
  br i1 %27, label %.preheader, label %.preheader29

.preheader29:                                     ; preds = %22
  %28 = getelementptr inbounds nuw i8, ptr %0, i64 112
  %.pre = load i8, ptr %28, align 8, !tbaa !44
  br label %34

.preheader:                                       ; preds = %22, %.preheader
  %indvars.iv46 = phi i64 [ %indvars.iv.next47, %.preheader ], [ 16, %22 ]
  %29 = load ptr, ptr %9, align 8, !tbaa !40
  %30 = getelementptr inbounds nuw i8, ptr %29, i64 %indvars.iv46
  %31 = load i8, ptr %30, align 1, !tbaa !44
  %32 = add nuw nsw i64 %indvars.iv46, 17
  %33 = getelementptr inbounds nuw [37 x i8], ptr %5, i64 0, i64 %32
  store i8 %31, ptr %33, align 1, !tbaa !44
  %indvars.iv.next47 = add nuw nsw i64 %indvars.iv46, 1
  %exitcond49.not = icmp eq i64 %indvars.iv.next47, 20
  br i1 %exitcond49.not, label %.loopexit, label %.preheader, !llvm.loop !91

34:                                               ; preds = %.preheader29, %34
  %indvars.iv42 = phi i64 [ 16, %.preheader29 ], [ %indvars.iv.next43, %34 ]
  %35 = add nuw nsw i64 %indvars.iv42, 17
  %36 = getelementptr inbounds nuw [37 x i8], ptr %5, i64 0, i64 %35
  store i8 %.pre, ptr %36, align 1, !tbaa !44
  %indvars.iv.next43 = add nuw nsw i64 %indvars.iv42, 1
  %exitcond45.not = icmp eq i64 %indvars.iv.next43, 20
  br i1 %exitcond45.not, label %.loopexit, label %34, !llvm.loop !92

.loopexit:                                        ; preds = %34, %.preheader
  %37 = getelementptr inbounds nuw i8, ptr %0, i64 72
  %38 = load ptr, ptr %37, align 8, !tbaa !35
  %39 = load i32, ptr %38, align 4, !tbaa !47
  %40 = getelementptr inbounds i8, ptr %38, i64 -4
  %41 = load i32, ptr %40, align 4, !tbaa !47
  %42 = getelementptr inbounds nuw i8, ptr %0, i64 132
  %43 = getelementptr inbounds nuw i8, ptr %0, i64 168
  %44 = lshr i32 %39, 12
  %.lobit.i = and i32 %44, 1
  store i32 %.lobit.i, ptr %42, align 4, !tbaa !47
  %45 = lshr i32 %39, 13
  %.lobit37.i = and i32 %45, 1
  %46 = getelementptr inbounds nuw i8, ptr %0, i64 136
  store i32 %.lobit37.i, ptr %46, align 4, !tbaa !47
  %47 = lshr i32 %39, 14
  %.lobit38.i = and i32 %47, 1
  %48 = getelementptr inbounds nuw i8, ptr %0, i64 140
  store i32 %.lobit38.i, ptr %48, align 4, !tbaa !47
  %49 = lshr i32 %39, 15
  %.lobit39.i = and i32 %49, 1
  %50 = getelementptr inbounds nuw i8, ptr %0, i64 144
  store i32 %.lobit39.i, ptr %50, align 4, !tbaa !47
  %51 = lshr i32 %39, 18
  %.lobit40.i = and i32 %51, 1
  %52 = getelementptr inbounds nuw i8, ptr %0, i64 148
  store i32 %.lobit40.i, ptr %52, align 4, !tbaa !47
  %53 = lshr i32 %39, 19
  %.lobit41.i = and i32 %53, 1
  %54 = getelementptr inbounds nuw i8, ptr %0, i64 152
  store i32 %.lobit41.i, ptr %54, align 4, !tbaa !47
  %55 = lshr i32 %39, 22
  %.lobit42.i = and i32 %55, 1
  %56 = getelementptr inbounds nuw i8, ptr %0, i64 156
  store i32 %.lobit42.i, ptr %56, align 4, !tbaa !47
  %57 = lshr i32 %39, 23
  %.lobit43.i = and i32 %57, 1
  %58 = getelementptr inbounds nuw i8, ptr %0, i64 160
  store i32 %.lobit43.i, ptr %58, align 4, !tbaa !47
  %59 = lshr i32 %39, 24
  %.lobit44.i = and i32 %59, 1
  %60 = getelementptr inbounds nuw i8, ptr %0, i64 164
  store i32 %.lobit44.i, ptr %60, align 4, !tbaa !47
  %61 = lshr i32 %41, 3
  %.lobit45.i = and i32 %61, 1
  store i32 %.lobit45.i, ptr %43, align 4, !tbaa !47
  %62 = lshr i32 %41, 7
  %.lobit46.i = and i32 %62, 1
  %63 = getelementptr inbounds nuw i8, ptr %0, i64 172
  store i32 %.lobit46.i, ptr %63, align 4, !tbaa !47
  %64 = lshr i32 %41, 11
  %.lobit47.i = and i32 %64, 1
  %65 = getelementptr inbounds nuw i8, ptr %0, i64 176
  store i32 %.lobit47.i, ptr %65, align 4, !tbaa !47
  %66 = lshr i32 %41, 15
  %.lobit48.i = and i32 %66, 1
  %67 = getelementptr inbounds nuw i8, ptr %0, i64 180
  store i32 %.lobit48.i, ptr %67, align 4, !tbaa !47
  %68 = lshr i32 %41, 17
  %.lobit49.i = and i32 %68, 1
  %69 = getelementptr inbounds nuw i8, ptr %0, i64 184
  store i32 %.lobit49.i, ptr %69, align 4, !tbaa !47
  %70 = lshr i32 %41, 19
  %.lobit50.i = and i32 %70, 1
  %71 = getelementptr inbounds nuw i8, ptr %0, i64 188
  store i32 %.lobit50.i, ptr %71, align 4, !tbaa !47
  %72 = lshr i32 %41, 21
  %.lobit51.i = and i32 %72, 1
  %73 = getelementptr inbounds nuw i8, ptr %0, i64 192
  store i32 %.lobit51.i, ptr %73, align 4, !tbaa !47
  %74 = lshr i32 %41, 23
  %.lobit52.i = and i32 %74, 1
  %75 = getelementptr inbounds nuw i8, ptr %0, i64 196
  store i32 %.lobit52.i, ptr %75, align 4, !tbaa !47
  ret void
}